(dp0
((I0
I0
I0
I0
I0
I0
I0
I1
I0
I0
tp1
I2
tp2
I-1
s((I0
I0
I0
I0
I0
I0
I0
I0
I1
I0
tp3
I2
tp4
I0
s((I0
I1
I0
I0
I0
I0
I0
I0
I0
I0
tp5
I0
tp6
I-80
s((I0
I0
I0
I0
I0
I1
I0
I0
I0
I0
tp7
I1
tp8
I-25
s((I1
I0
I0
I0
I0
I0
I0
I0
I0
I0
tp9
I1
tp10
I0
s((I0
I0
I0
I0
I0
I0
I0
I1
I0
I0
tp11
I0
tp12
I-40
s((I0
I0
I0
I0
I0
I0
I0
I0
I0
I0
tp13
I0
tp14
I-100
s((I0
I0
I0
I0
I1
I0
I0
I0
I0
I0
tp15
I0
tp16
I0
s((I0
I0
I1
I0
I0
I0
I0
I0
I0
I0
tp17
I1
tp18
I-1
s((I0
I0
I0
I1
I0
I0
I0
I0
I0
I0
tp19
I2
tp20
I-40
s((I0
I0
I0
I0
I1
I0
I0
I0
I0
I0
tp21
I2
tp22
I-25
s((I0
I0
I0
I1
I0
I0
I0
I0
I0
I0
tp23
I0
tp24
I-15
s((I0
I0
I0
I0
I0
I0
I0
I0
I0
I0
tp25
I2
tp26
I-100
s((I0
I0
I0
I0
I0
I0
I0
I0
I0
I1
tp27
I1
tp28
I-100
s((I0
I0
I0
I0
I0
I0
I1
I0
I0
I0
tp29
I1
tp30
I-40
s((I1
I0
I0
I0
I0
I0
I0
I0
I0
I0
tp31
I2
tp32
I-100
s((I0
I1
I0
I0
I0
I0
I0
I0
I0
I0
tp33
I1
tp34
I0
s((I0
I0
I0
I0
I0
I1
I0
I0
I0
I0
tp35
I2
tp36
I-18
s((I0
I0
I0
I0
I0
I0
I0
I1
I0
I0
tp37
I1
tp38
I-60
s((I0
I0
I0
I0
I0
I0
I0
I0
I1
I0
tp39
I1
tp40
I-85
s((I0
I0
I0
I0
I1
I0
I0
I0
I0
I0
tp41
I1
tp42
I-18
s((I0
I0
I0
I0
I0
I1
I0
I0
I0
I0
tp43
I0
tp44
I0
s((I1
I0
I0
I0
I0
I0
I0
I0
I0
I0
tp45
I0
tp46
I-100
s((I0
I0
I0
I0
I0
I0
I1
I0
I0
I0
tp47
I0
tp48
I-15
s((I0
I0
I0
I0
I0
I0
I1
I0
I0
I0
tp49
I2
tp50
I-2
s((I0
I0
I1
I0
I0
I0
I0
I0
I0
I0
tp51
I0
tp52
I-40
s((I0
I0
I0
I1
I0
I0
I0
I0
I0
I0
tp53
I1
tp54
I-2
s((I0
I0
I0
I0
I0
I0
I0
I0
I0
I0
tp55
I1
tp56
I-100
s((I0
I0
I0
I0
I0
I0
I0
I0
I0
I1
tp57
I2
tp58
I0
s((I0
I0
I0
I0
I0
I0
I0
I0
I1
I0
tp59
I0
tp60
I-80
s((I0
I0
I0
I0
I0
I0
I0
I0
I0
I1
tp61
I0
tp62
I-100
s((I0
I1
I0
I0
I0
I0
I0
I0
I0
I0
tp63
I2
tp64
I-85
s((I0
I0
I1
I0
I0
I0
I0
I0
I0
I0
tp65
I2
tp66
I-60
s.